; Function Attrs: nounwind uwtable
define internal noalias ptr @dh_newctx(ptr noundef %0) #0 {
  %2 = tail call i32 @ossl_prov_is_running() #7
  %.not = icmp eq i32 %2, 0
  br i1 %.not, label %9, label %3

3:                                                ; preds = %1
  %4 = tail call noalias ptr @CRYPTO_zalloc(i64 noundef 72, ptr noundef nonnull @.str, i32 noundef 89) #7
  %5 = icmp eq ptr %4, null
  br i1 %5, label %9, label %6

6:                                                ; preds = %3
  %7 = tail call ptr @ossl_prov_ctx_get0_libctx(ptr noundef %0) #7
  store ptr %7, ptr %4, align 8, !tbaa !3
  %8 = getelementptr inbounds nuw i8, ptr %4, i64 28
  store i32 0, ptr %8, align 4, !tbaa !14
  br label %9

9:                                                ; preds = %3, %1, %6
  %.0 = phi ptr [ %4, %6 ], [ null, %1 ], [ null, %3 ]
  ret ptr %.0
}